target datalayout = "e-m:e-p270:32:32-p271:32:32-p272:64:64-i64:64-i128:128-f80:128-n8:16:32:64-S128"
target triple = "x86_64-pc-linux-gnu"

%struct.QTailQLink = type { ptr, ptr }
%struct.CPUState = type { %struct.DeviceState, ptr, i32, ptr, i32, i8, i8, ptr, i8, i8, i8, i8, i8, i8, i8, i8, i32, i32, i32, i32, i64, i64, i64, [1 x %struct.__jmp_buf_tag], %struct.QemuMutex, %struct.anon, ptr, i32, i32, ptr, ptr, ptr, ptr, i32, i32, %union.anon, %union.anon.0, %union.anon.1, ptr, ptr, i64, i32, ptr, ptr, ptr, i32, i64, i32, i8, %struct.QemuLockCnt, ptr, i32, i32, i32, i32, i32, ptr, i8, i64, i8, i8, ptr, [0 x i8], %struct.CPUNegativeOffsetState }
%struct.DeviceState = type { %struct.Object, ptr, ptr, i8, i8, i64, i32, i8, ptr, %struct.NamedGPIOListHead, %struct.NamedClockListHead, %struct.BusStateHead, i32, i32, i32, %struct.ResettableState, ptr, %struct.MemReentrancyGuard }
%struct.Object = type { ptr, ptr, ptr, i32, ptr }
%struct.NamedGPIOListHead = type { ptr }
%struct.NamedClockListHead = type { ptr }
%struct.BusStateHead = type { ptr }
%struct.ResettableState = type { i32, i8, i8 }
%struct.MemReentrancyGuard = type { i8 }
%struct.__jmp_buf_tag = type { [8 x i64], i32, %struct.__sigset_t }
%struct.__sigset_t = type { [16 x i64] }
%struct.QemuMutex = type { %union.pthread_mutex_t, i8 }
%union.pthread_mutex_t = type { %struct.__pthread_mutex_s }
%struct.__pthread_mutex_s = type { i32, i32, i32, i32, i32, i16, i16, %struct.__pthread_internal_list }
%struct.__pthread_internal_list = type { ptr, ptr }
%struct.anon = type { ptr, ptr }
%union.anon = type { %struct.QTailQLink }
%union.anon.0 = type { %struct.QTailQLink }
%union.anon.1 = type { %struct.QTailQLink }
%struct.QemuLockCnt = type { i32 }
%struct.CPUNegativeOffsetState = type { %struct.CPUTLB, ptr, i64, i64, %union.IcountDecr, i8 }
%struct.CPUTLB = type { %struct.CPUTLBCommon, [16 x %struct.CPUTLBDesc], [16 x %struct.CPUTLBDescFast] }
%struct.CPUTLBCommon = type { %struct.QemuSpin, i16, i64, i64, i64 }
%struct.QemuSpin = type { i32 }
%struct.CPUTLBDesc = type { i64, i64, i64, i64, i64, i64, [8 x %union.CPUTLBEntry], [8 x %struct.CPUTLBEntryFull], ptr }
%union.CPUTLBEntry = type { %struct.anon.2 }
%struct.anon.2 = type { i64, i64, i64, i64 }
%struct.CPUTLBEntryFull = type { i64, i64, %struct.MemTxAttrs, i8, i8, i8, [3 x i8], %union.anon.3 }
%struct.MemTxAttrs = type { i32, i8, i8, i16 }
%union.anon.3 = type { %struct.anon.4 }
%struct.anon.4 = type { i8, i8, i8 }
%struct.CPUTLBDescFast = type { i64, ptr }
%union.IcountDecr = type { i32 }

@tcg_allowed = external global i8, align 1

; Function Attrs: nounwind sspstrong uwtable
define internal void @cpu_common_initfn(ptr noundef %0) #0 {
  %2 = alloca ptr, align 8
  %3 = alloca ptr, align 8
  %4 = alloca i64, align 8
  %5 = alloca i64, align 8
  %6 = alloca ptr, align 8
  %7 = alloca ptr, align 8
  %8 = alloca i64, align 8
  %9 = alloca i64, align 8
  %10 = alloca ptr, align 8
  %11 = alloca ptr, align 8
  store ptr %0, ptr %2, align 8
  call void @llvm.lifetime.start.p0(i64 8, ptr %3) #13
  %12 = load ptr, ptr %2, align 8
  store ptr %12, ptr %3, align 8
  %13 = load ptr, ptr %3, align 8
  call void @gdb_init_cpu(ptr noundef %13)
  %14 = load ptr, ptr %3, align 8
  %15 = getelementptr inbounds nuw %struct.CPUState, ptr %14, i32 0, i32 51
  store i32 -1, ptr %15, align 16
  %16 = load ptr, ptr %3, align 8
  %17 = getelementptr inbounds nuw %struct.CPUState, ptr %16, i32 0, i32 52
  store i32 -1, ptr %17, align 4
  %18 = load ptr, ptr %3, align 8
  %19 = getelementptr inbounds nuw %struct.CPUState, ptr %18, i32 0, i32 2
  store i32 1, ptr %19, align 16
  %20 = load ptr, ptr %3, align 8
  %21 = getelementptr inbounds nuw %struct.CPUState, ptr %20, i32 0, i32 17
  store i32 -1, ptr %21, align 4
  call void @llvm.lifetime.start.p0(i64 8, ptr %4) #13
  store i64 1, ptr %4, align 8
  call void @llvm.lifetime.start.p0(i64 8, ptr %5) #13
  store i64 8, ptr %5, align 8
  call void @llvm.lifetime.start.p0(i64 8, ptr %6) #13
  store ptr null, ptr %6, align 8, !annotation !4
  %22 = load i64, ptr %5, align 8
  %23 = icmp eq i64 %22, 1
  br i1 %23, label %24, label %27

24:                                               ; preds = %1
  %25 = load i64, ptr %4, align 8
  %26 = call noalias ptr @g_malloc0(i64 noundef %25) #16
  store ptr %26, ptr %6, align 8
  br label %48

27:                                               ; preds = %1
  %28 = load i64, ptr %4, align 8
  %29 = call i1 @llvm.is.constant.i64(i64 %28)
  br i1 %29, label %30, label %43

30:                                               ; preds = %27
  %31 = load i64, ptr %5, align 8
  %32 = icmp eq i64 %31, 0
  br i1 %32, label %38, label %33

33:                                               ; preds = %30
  %34 = load i64, ptr %4, align 8
  %35 = load i64, ptr %5, align 8
  %36 = udiv i64 -1, %35
  %37 = icmp ule i64 %34, %36
  br i1 %37, label %38, label %43

38:                                               ; preds = %33, %30
  %39 = load i64, ptr %4, align 8
  %40 = load i64, ptr %5, align 8
  %41 = mul i64 %39, %40
  %42 = call noalias ptr @g_malloc0(i64 noundef %41) #16
  store ptr %42, ptr %6, align 8
  br label %47

43:                                               ; preds = %33, %27
  %44 = load i64, ptr %4, align 8
  %45 = load i64, ptr %5, align 8
  %46 = call noalias ptr @g_malloc0_n(i64 noundef %44, i64 noundef %45) #17
  store ptr %46, ptr %6, align 8
  br label %47

47:                                               ; preds = %43, %38
  br label %48

48:                                               ; preds = %47, %24
  %49 = load ptr, ptr %6, align 8
  store ptr %49, ptr %7, align 8
  call void @llvm.lifetime.end.p0(i64 8, ptr %6) #13
  call void @llvm.lifetime.end.p0(i64 8, ptr %5) #13
  call void @llvm.lifetime.end.p0(i64 8, ptr %4) #13
  %50 = load ptr, ptr %7, align 8
  %51 = load ptr, ptr %3, align 8
  %52 = getelementptr inbounds nuw %struct.CPUState, ptr %51, i32 0, i32 3
  store ptr %50, ptr %52, align 8
  call void @llvm.lifetime.start.p0(i64 8, ptr %8) #13
  store i64 1, ptr %8, align 8
  call void @llvm.lifetime.start.p0(i64 8, ptr %9) #13
  store i64 56, ptr %9, align 8
  call void @llvm.lifetime.start.p0(i64 8, ptr %10) #13
  store ptr null, ptr %10, align 8, !annotation !4
  %53 = load i64, ptr %9, align 8
  %54 = icmp eq i64 %53, 1
  br i1 %54, label %55, label %58

55:                                               ; preds = %48
  %56 = load i64, ptr %8, align 8
  %57 = call noalias ptr @g_malloc0(i64 noundef %56) #16
  store ptr %57, ptr %10, align 8
  br label %79

58:                                               ; preds = %48
  %59 = load i64, ptr %8, align 8
  %60 = call i1 @llvm.is.constant.i64(i64 %59)
  br i1 %60, label %61, label %74

61:                                               ; preds = %58
  %62 = load i64, ptr %9, align 8
  %63 = icmp eq i64 %62, 0
  br i1 %63, label %69, label %64

64:                                               ; preds = %61
  %65 = load i64, ptr %8, align 8
  %66 = load i64, ptr %9, align 8
  %67 = udiv i64 -1, %66
  %68 = icmp ule i64 %65, %67
  br i1 %68, label %69, label %74

69:                                               ; preds = %64, %61
  %70 = load i64, ptr %8, align 8
  %71 = load i64, ptr %9, align 8
  %72 = mul i64 %70, %71
  %73 = call noalias ptr @g_malloc0(i64 noundef %72) #16
  store ptr %73, ptr %10, align 8
  br label %78

74:                                               ; preds = %64, %58
  %75 = load i64, ptr %8, align 8
  %76 = load i64, ptr %9, align 8
  %77 = call noalias ptr @g_malloc0_n(i64 noundef %75, i64 noundef %76) #17
  store ptr %77, ptr %10, align 8
  br label %78

78:                                               ; preds = %74, %69
  br label %79

79:                                               ; preds = %78, %55
  %80 = load ptr, ptr %10, align 8
  store ptr %80, ptr %11, align 8
  call void @llvm.lifetime.end.p0(i64 8, ptr %10) #13
  call void @llvm.lifetime.end.p0(i64 8, ptr %9) #13
  call void @llvm.lifetime.end.p0(i64 8, ptr %8) #13
  %81 = load ptr, ptr %11, align 8
  %82 = load ptr, ptr %3, align 8
  %83 = getelementptr inbounds nuw %struct.CPUState, ptr %82, i32 0, i32 7
  store ptr %81, ptr %83, align 8
  %84 = load ptr, ptr %3, align 8
  %85 = getelementptr inbounds nuw %struct.CPUState, ptr %84, i32 0, i32 7
  %86 = load ptr, ptr %85, align 8
  call void @qemu_cond_init(ptr noundef %86)
  %87 = load ptr, ptr %3, align 8
  %88 = getelementptr inbounds nuw %struct.CPUState, ptr %87, i32 0, i32 24
  call void @qemu_mutex_init(ptr noundef %88)
  %89 = load ptr, ptr %3, align 8
  %90 = getelementptr inbounds nuw %struct.CPUState, ptr %89, i32 0, i32 49
  call void @qemu_lockcnt_init(ptr noundef %90)
  br label %91

91:                                               ; preds = %79
  %92 = load ptr, ptr %3, align 8
  %93 = getelementptr inbounds nuw %struct.CPUState, ptr %92, i32 0, i32 25
  %94 = getelementptr inbounds nuw %struct.anon, ptr %93, i32 0, i32 0
  store ptr null, ptr %94, align 8
  %95 = load ptr, ptr %3, align 8
  %96 = getelementptr inbounds nuw %struct.CPUState, ptr %95, i32 0, i32 25
  %97 = getelementptr inbounds nuw %struct.anon, ptr %96, i32 0, i32 0
  %98 = load ptr, ptr %3, align 8
  %99 = getelementptr inbounds nuw %struct.CPUState, ptr %98, i32 0, i32 25
  %100 = getelementptr inbounds nuw %struct.anon, ptr %99, i32 0, i32 1
  store ptr %97, ptr %100, align 8
  br label %101

101:                                              ; preds = %91
  br label %102

102:                                              ; preds = %101
  br label %103

103:                                              ; preds = %102
  %104 = load ptr, ptr %3, align 8
  %105 = getelementptr inbounds nuw %struct.CPUState, ptr %104, i32 0, i32 36
  store ptr null, ptr %105, align 16
  %106 = load ptr, ptr %3, align 8
  %107 = getelementptr inbounds nuw %struct.CPUState, ptr %106, i32 0, i32 36
  %108 = load ptr, ptr %3, align 8
  %109 = getelementptr inbounds nuw %struct.CPUState, ptr %108, i32 0, i32 36
  %110 = getelementptr inbounds nuw %struct.QTailQLink, ptr %109, i32 0, i32 1
  store ptr %107, ptr %110, align 8
  br label %111

111:                                              ; preds = %103
  br label %112

112:                                              ; preds = %111
  br label %113

113:                                              ; preds = %112
  %114 = load ptr, ptr %3, align 8
  %115 = getelementptr inbounds nuw %struct.CPUState, ptr %114, i32 0, i32 37
  store ptr null, ptr %115, align 16
  %116 = load ptr, ptr %3, align 8
  %117 = getelementptr inbounds nuw %struct.CPUState, ptr %116, i32 0, i32 37
  %118 = load ptr, ptr %3, align 8
  %119 = getelementptr inbounds nuw %struct.CPUState, ptr %118, i32 0, i32 37
  %120 = getelementptr inbounds nuw %struct.QTailQLink, ptr %119, i32 0, i32 1
  store ptr %117, ptr %120, align 8
  br label %121

121:                                              ; preds = %113
  br label %122

122:                                              ; preds = %121
  %123 = load ptr, ptr %3, align 8
  call void @cpu_exec_initfn(ptr noundef %123)
  %124 = load i8, ptr @tcg_allowed, align 1, !range !11, !noundef !12
  %125 = trunc i8 %124 to i1
  br i1 %125, label %126, label %131

126:                                              ; preds = %122
  %127 = call ptr @qemu_plugin_create_vcpu_state()
  %128 = load ptr, ptr %3, align 8
  %129 = getelementptr inbounds nuw %struct.CPUState, ptr %128, i32 0, i32 50
  store ptr %127, ptr %129, align 8
  %130 = load ptr, ptr %3, align 8
  call void @qemu_plugin_vcpu_init_hook(ptr noundef %130)
  br label %131

131:                                              ; preds = %126, %122
  call void @llvm.lifetime.end.p0(i64 8, ptr %3) #13
  ret void
}