; Function Attrs: nounwind sspstrong uwtable
define internal void @cpu_common_initfn(ptr noundef %0) #0 {
  tail call void @gdb_init_cpu(ptr noundef %0) #12
  %2 = getelementptr inbounds nuw i8, ptr %0, i64 704
  store i32 -1, ptr %2, align 16
  %3 = getelementptr inbounds nuw i8, ptr %0, i64 708
  store i32 -1, ptr %3, align 4
  %4 = getelementptr inbounds nuw i8, ptr %0, i64 160
  store i32 1, ptr %4, align 16
  %5 = getelementptr inbounds nuw i8, ptr %0, i64 204
  store i32 -1, ptr %5, align 4
  %6 = tail call noalias dereferenceable_or_null(8) ptr @g_malloc0(i64 noundef 8) #15
  %7 = getelementptr inbounds nuw i8, ptr %0, i64 168
  store ptr %6, ptr %7, align 8
  %8 = tail call noalias dereferenceable_or_null(56) ptr @g_malloc0(i64 noundef 56) #15
  %9 = getelementptr inbounds nuw i8, ptr %0, i64 184
  store ptr %8, ptr %9, align 8
  tail call void @qemu_cond_init(ptr noundef %8) #12
  %10 = getelementptr inbounds nuw i8, ptr %0, i64 440
  tail call void @qemu_mutex_init(ptr noundef nonnull %10) #12
  %11 = getelementptr inbounds nuw i8, ptr %0, i64 688
  tail call void @qemu_lockcnt_init(ptr noundef nonnull %11) #12
  %12 = getelementptr inbounds nuw i8, ptr %0, i64 488
  store ptr null, ptr %12, align 8
  %13 = getelementptr inbounds nuw i8, ptr %0, i64 496
  store ptr %12, ptr %13, align 8
  %14 = getelementptr inbounds nuw i8, ptr %0, i64 576
  store ptr null, ptr %14, align 16
  %15 = getelementptr inbounds nuw i8, ptr %0, i64 584
  store ptr %14, ptr %15, align 8
  %16 = getelementptr inbounds nuw i8, ptr %0, i64 592
  store ptr null, ptr %16, align 16
  %17 = getelementptr inbounds nuw i8, ptr %0, i64 600
  store ptr %16, ptr %17, align 8
  tail call void @cpu_exec_initfn(ptr noundef %0) #12
  %18 = load i8, ptr @tcg_allowed, align 1, !range !10, !noundef !11
  %19 = trunc nuw i8 %18 to i1
  br i1 %19, label %20, label %23

20:                                               ; preds = %1
  %21 = tail call ptr @qemu_plugin_create_vcpu_state() #12
  %22 = getelementptr inbounds nuw i8, ptr %0, i64 696
  store ptr %21, ptr %22, align 8
  tail call void @qemu_plugin_vcpu_init_hook(ptr noundef nonnull %0) #12
  br label %23

23:                                               ; preds = %20, %1
  ret void
}